; Function Attrs: mustprogress uwtable
define void @_ZN3nix7GitRepo8openRepoERKNSt10filesystem7__cxx114pathEbb(ptr dead_on_unwind noalias writable sret(%"class.nix::ref") align 8 %0, ptr noundef nonnull align 8 dereferenceable(40) %1, i1 noundef zeroext %2, i1 noundef zeroext %3) local_unnamed_addr #4 align 2 personality ptr @__gxx_personality_v0 {
  %5 = alloca i8, align 1
  %6 = alloca i8, align 1
  %7 = alloca %"class.nix::ref.20", align 8
  %8 = zext i1 %2 to i8
  store i8 %8, ptr %5, align 1
  %9 = zext i1 %3 to i8
  store i8 %9, ptr %6, align 1
  call void @_ZN3nix8make_refINS_11GitRepoImplEJRKNSt10filesystem7__cxx114pathERbS7_EEENS_3refIT_EEDpOT0_(ptr dead_on_unwind nonnull writable sret(%"class.nix::ref.20") align 8 %7, ptr noundef nonnull align 8 dereferenceable(40) %1, ptr noundef nonnull align 1 dereferenceable(1) %5, ptr noundef nonnull align 1 dereferenceable(1) %6)
  invoke void @_ZNK3nix3refINS_11GitRepoImplEEcvNS0_IT_EEINS_7GitRepoEEEv(ptr dead_on_unwind writable sret(%"class.nix::ref") align 8 %0, ptr noundef nonnull align 8 dereferenceable(16) %7)
          to label %10 unwind label %47

10:                                               ; preds = %4
  %11 = getelementptr inbounds i8, ptr %7, i64 8
  %12 = load ptr, ptr %11, align 8
  %.not.i.i.i.i = icmp eq ptr %12, null
  br i1 %.not.i.i.i.i, label %_ZN3nix3refINS_11GitRepoImplEED2Ev.exit, label %13

13:                                               ; preds = %10
  %14 = getelementptr inbounds i8, ptr %12, i64 8
  %15 = load atomic i64, ptr %14 acquire, align 8
  %16 = icmp eq i64 %15, 4294967297
  %17 = trunc i64 %15 to i32
  br i1 %16, label %18, label %23

18:                                               ; preds = %13
  store i32 0, ptr %14, align 8
  %19 = getelementptr inbounds i8, ptr %12, i64 12
  store i32 0, ptr %19, align 4
  %20 = load ptr, ptr %12, align 8
  %21 = getelementptr inbounds i8, ptr %20, i64 16
  %22 = load ptr, ptr %21, align 8
  call void %22(ptr noundef nonnull align 8 dereferenceable(16) %12) #25
  br label %_ZNSt16_Sp_counted_baseILN9__gnu_cxx12_Lock_policyE2EE24_M_release_last_use_coldEv.exit.sink.split.i.i.i.i.i

23:                                               ; preds = %13
  %24 = load i8, ptr @__libc_single_threaded, align 1
  %.not.i.i.i.i.i = icmp eq i8 %24, 0
  br i1 %.not.i.i.i.i.i, label %27, label %25

25:                                               ; preds = %23
  %26 = add nsw i32 %17, -1
  store i32 %26, ptr %14, align 4
  br label %29

27:                                               ; preds = %23
  %28 = atomicrmw volatile add ptr %14, i32 -1 acq_rel, align 4
  br label %29

29:                                               ; preds = %27, %25
  %.0.i.i.i.i.i = phi i32 [ %17, %25 ], [ %28, %27 ]
  %30 = icmp eq i32 %.0.i.i.i.i.i, 1
  br i1 %30, label %31, label %_ZN3nix3refINS_11GitRepoImplEED2Ev.exit

31:                                               ; preds = %29
  %32 = load ptr, ptr %12, align 8
  %33 = getelementptr inbounds i8, ptr %32, i64 16
  %34 = load ptr, ptr %33, align 8
  call void %34(ptr noundef nonnull align 8 dereferenceable(16) %12) #25
  %35 = getelementptr inbounds i8, ptr %12, i64 12
  %36 = load i8, ptr @__libc_single_threaded, align 1
  %.not.i.i.i.i.i.i.i = icmp eq i8 %36, 0
  br i1 %.not.i.i.i.i.i.i.i, label %40, label %37

37:                                               ; preds = %31
  %38 = load i32, ptr %35, align 4
  %39 = add nsw i32 %38, -1
  store i32 %39, ptr %35, align 4
  br label %42

40:                                               ; preds = %31
  %41 = atomicrmw volatile add ptr %35, i32 -1 acq_rel, align 4
  br label %42

42:                                               ; preds = %40, %37
  %.0.i.i.i.i.i.i.i = phi i32 [ %38, %37 ], [ %41, %40 ]
  %43 = icmp eq i32 %.0.i.i.i.i.i.i.i, 1
  br i1 %43, label %_ZNSt16_Sp_counted_baseILN9__gnu_cxx12_Lock_policyE2EE24_M_release_last_use_coldEv.exit.sink.split.i.i.i.i.i, label %_ZN3nix3refINS_11GitRepoImplEED2Ev.exit

_ZNSt16_Sp_counted_baseILN9__gnu_cxx12_Lock_policyE2EE24_M_release_last_use_coldEv.exit.sink.split.i.i.i.i.i: ; preds = %42, %18
  %44 = load ptr, ptr %12, align 8
  %45 = getelementptr inbounds i8, ptr %44, i64 24
  %46 = load ptr, ptr %45, align 8
  call void %46(ptr noundef nonnull align 8 dereferenceable(16) %12) #25
  br label %_ZN3nix3refINS_11GitRepoImplEED2Ev.exit

_ZN3nix3refINS_11GitRepoImplEED2Ev.exit:          ; preds = %10, %29, %42, %_ZNSt16_Sp_counted_baseILN9__gnu_cxx12_Lock_policyE2EE24_M_release_last_use_coldEv.exit.sink.split.i.i.i.i.i
  ret void

47:                                               ; preds = %4
  %48 = landingpad { ptr, i32 }
          cleanup
  call void @_ZN3nix3refINS_11GitRepoImplEED2Ev(ptr noundef nonnull align 8 dereferenceable(16) %7) #25
  resume { ptr, i32 } %48
}